target datalayout = "e-m:e-p270:32:32-p271:32:32-p272:64:64-i64:64-i128:128-f80:128-n8:16:32:64-S128"
target triple = "x86_64-pc-linux-gnu"

%class.Register = type { i32 }
%class.AddressLiteral = type { %class.RelocationHolder, i8, ptr }
%class.RelocationHolder = type { [40 x i8] }
%class.RuntimeAddress = type { %class.AddressLiteral }
%class.CodeStub = type { ptr, %class.Label, %class.Label }
%class.Label = type <{ i32, [4 x i32], i32, ptr, i8, [7 x i8] }>
%class.LIR_Assembler = type { ptr, ptr, ptr, ptr, ptr, ptr, i32, i32, %class.Label }
%class.LIR_Opr = type { i64 }
%class.Compilation = type { ptr, i32, i32, ptr, ptr, ptr, ptr, ptr, i32, ptr, i32, ptr, ptr, i8, i8, i8, i8, i8, i8, i8, i8, i8, ptr, ptr, i8, ptr, %class.ExceptionHandlerTable, %class.ImplicitExceptionTable, ptr, %class.CodeOffsets, %class.CodeBuffer, i8, i32, i32, ptr }
%class.ExceptionHandlerTable = type <{ ptr, i32, i32, %class.ReallocMark, [7 x i8] }>
%class.ReallocMark = type { i8 }
%class.ImplicitExceptionTable = type <{ i32, i32, ptr, %class.ReallocMark, [7 x i8] }>
%class.CodeOffsets = type { [8 x i32] }
%class.CodeBuffer = type { ptr, %class.CodeSection, %class.CodeSection, %class.CodeSection, ptr, ptr, ptr, i32, ptr, %class.OopRecorder, ptr, ptr, ptr, ptr, ptr, i8, i32 }
%class.CodeSection = type { ptr, ptr, ptr, ptr, ptr, ptr, ptr, ptr, i8, i8, i32, i8, ptr }
%class.OopRecorder = type { %class.ValueRecorder, %class.ValueRecorder.0, ptr }
%class.ValueRecorder = type <{ ptr, ptr, ptr, ptr, i8, [7 x i8] }>
%class.ValueRecorder.0 = type <{ ptr, ptr, ptr, ptr, i8, [7 x i8] }>
%class.MonitorAccessStub = type { %class.CodeStub, %class.LIR_Opr, %class.LIR_Opr }
%class.MonitorExitStub = type { %class.MonitorAccessStub, i8, i32 }
%class.CodeBlob = type <{ ptr, ptr, ptr, i32, i32, i32, i32, i32, i32, i16, i16, i8, i8, [2 x i8] }>

@_ZL3rax = internal constant %class.Register zeroinitializer, align 4

; Function Attrs: mustprogress nounwind uwtable
define linkonce_odr hidden noundef ptr @_ZNK16RelocationHolder5relocEv(ptr noundef nonnull align 8 dereferenceable(40) %0) #1 comdat align 2 {
  %2 = alloca ptr, align 8
  store ptr %0, ptr %2, align 8
  %3 = load ptr, ptr %2, align 8
  %4 = getelementptr inbounds %class.RelocationHolder, ptr %3, i32 0, i32 0
  %5 = getelementptr inbounds [40 x i8], ptr %4, i64 0, i64 0
  ret ptr %5
}

; Function Attrs: mustprogress nounwind uwtable
define linkonce_odr hidden noundef ptr @_ZNK8CodeBlob12header_beginEv(ptr noundef nonnull align 8 dereferenceable(54) %0) #1 comdat align 2 {
  %2 = alloca ptr, align 8
  store ptr %0, ptr %2, align 8
  %3 = load ptr, ptr %2, align 8
  ret ptr %3
}

; Function Attrs: mustprogress nounwind uwtable
define linkonce_odr hidden void @_ZN16RelocationHolderC2ERKS_(ptr noundef nonnull align 8 dereferenceable(40) %0, ptr noundef nonnull align 8 dereferenceable(40) %1) unnamed_addr #1 comdat align 2 {
  %3 = alloca ptr, align 8
  %4 = alloca ptr, align 8
  store ptr %0, ptr %3, align 8
  store ptr %1, ptr %4, align 8
  %5 = load ptr, ptr %3, align 8
  %6 = load ptr, ptr %4, align 8
  %7 = call noundef ptr @_ZNK16RelocationHolder5relocEv(ptr noundef nonnull align 8 dereferenceable(40) %6)
  %8 = load ptr, ptr %7, align 8
  %9 = getelementptr inbounds ptr, ptr %8, i64 2
  %10 = load ptr, ptr %9, align 8
  call void %10(ptr noundef nonnull align 8 dereferenceable(20) %7, ptr noundef nonnull align 8 dereferenceable(40) %5)
  ret void
}

; Function Attrs: mustprogress nounwind uwtable
define linkonce_odr hidden noundef ptr @_ZNK8CodeBlob10code_beginEv(ptr noundef nonnull align 8 dereferenceable(54) %0) #1 comdat align 2 {
  %2 = alloca ptr, align 8
  store ptr %0, ptr %2, align 8
  %3 = load ptr, ptr %2, align 8
  %4 = call noundef ptr @_ZNK8CodeBlob12header_beginEv(ptr noundef nonnull align 8 dereferenceable(54) %3)
  %5 = getelementptr inbounds %class.CodeBlob, ptr %3, i32 0, i32 6
  %6 = load i32, ptr %5, align 4
  %7 = sext i32 %6 to i64
  %8 = getelementptr inbounds i8, ptr %4, i64 %7
  ret ptr %8
}

; Function Attrs: mustprogress nounwind uwtable
define linkonce_odr hidden void @_ZN14AddressLiteralC2EOS_(ptr noundef nonnull align 8 dereferenceable(56) %0, ptr noundef nonnull align 8 dereferenceable(56) %1) unnamed_addr #1 comdat align 2 {
  %3 = alloca ptr, align 8
  %4 = alloca ptr, align 8
  store ptr %0, ptr %3, align 8
  store ptr %1, ptr %4, align 8
  %5 = load ptr, ptr %3, align 8
  %6 = getelementptr inbounds %class.AddressLiteral, ptr %5, i32 0, i32 0
  %7 = load ptr, ptr %4, align 8
  %8 = getelementptr inbounds %class.AddressLiteral, ptr %7, i32 0, i32 0
  call void @_ZN16RelocationHolderC2ERKS_(ptr noundef nonnull align 8 dereferenceable(40) %6, ptr noundef nonnull align 8 dereferenceable(40) %8)
  %9 = getelementptr inbounds %class.AddressLiteral, ptr %5, i32 0, i32 1
  %10 = load ptr, ptr %4, align 8
  %11 = getelementptr inbounds %class.AddressLiteral, ptr %10, i32 0, i32 1
  call void @llvm.memcpy.p0.p0.i64(ptr align 8 %9, ptr align 8 %11, i64 16, i1 false)
  ret void
}

; Function Attrs: mustprogress nounwind uwtable
define linkonce_odr hidden void @_ZN14RuntimeAddressC2EPh(ptr noundef nonnull align 8 dereferenceable(56) %0, ptr noundef %1) unnamed_addr #1 comdat align 2 {
  %3 = alloca ptr, align 8
  %4 = alloca ptr, align 8
  store ptr %0, ptr %3, align 8
  store ptr %1, ptr %4, align 8
  %5 = load ptr, ptr %3, align 8
  %6 = load ptr, ptr %4, align 8
  call void @_ZN14AddressLiteralC2EPhN9relocInfo9relocTypeE(ptr noundef nonnull align 8 dereferenceable(56) %5, ptr noundef %6, i32 noundef 6)
  ret void
}

; Function Attrs: mustprogress nounwind uwtable
define linkonce_odr hidden noundef ptr @_ZN8Runtime19entry_forENS_6StubIDE(i32 noundef %0) #1 comdat align 2 {
  %2 = alloca i32, align 4
  store i32 %0, ptr %2, align 4
  %3 = load i32, ptr %2, align 4
  %4 = call noundef ptr @_ZN8Runtime18blob_forENS_6StubIDE(i32 noundef %3)
  %5 = call noundef ptr @_ZNK8CodeBlob10code_beginEv(ptr noundef nonnull align 8 dereferenceable(54) %4)
  ret ptr %5
}

; Function Attrs: mustprogress nounwind uwtable
define linkonce_odr hidden noundef zeroext i1 @_ZNK11Compilation12has_fpu_codeEv(ptr noundef nonnull align 8 dereferenceable(704) %0) #1 comdat align 2 {
  %2 = alloca ptr, align 8
  store ptr %0, ptr %2, align 8
  %3 = load ptr, ptr %2, align 8
  %4 = getelementptr inbounds %class.Compilation, ptr %3, i32 0, i32 14
  %5 = load i8, ptr %4, align 1
  %6 = trunc i8 %5 to i1
  ret i1 %6
}

; Function Attrs: mustprogress nounwind uwtable
define linkonce_odr hidden noundef ptr @_ZNK13LIR_Assembler11compilationEv(ptr noundef nonnull align 8 dereferenceable(96) %0) #1 comdat align 2 {
  %2 = alloca ptr, align 8
  store ptr %0, ptr %2, align 8
  %3 = load ptr, ptr %2, align 8
  %4 = getelementptr inbounds %class.LIR_Assembler, ptr %3, i32 0, i32 2
  %5 = load ptr, ptr %4, align 8
  ret ptr %5
}

; Function Attrs: mustprogress nounwind uwtable
define linkonce_odr hidden noundef ptr @_ZN7LIR_OprptEv(ptr noundef nonnull align 8 dereferenceable(8) %0) #1 comdat align 2 {
  %2 = alloca ptr, align 8
  store ptr %0, ptr %2, align 8
  %3 = load ptr, ptr %2, align 8
  ret ptr %3
}

; Function Attrs: mustprogress nounwind uwtable
define linkonce_odr hidden noundef ptr @_ZNK13LIR_Assembler4masmEv(ptr noundef nonnull align 8 dereferenceable(96) %0) #1 comdat align 2 {
  %2 = alloca ptr, align 8
  store ptr %0, ptr %2, align 8
  %3 = load ptr, ptr %2, align 8
  %4 = getelementptr inbounds %class.LIR_Assembler, ptr %3, i32 0, i32 0
  %5 = load ptr, ptr %4, align 8
  ret ptr %5
}

; Function Attrs: mustprogress nounwind uwtable
define hidden void @_ZN15MonitorExitStub9emit_codeEP13LIR_Assembler(ptr noundef nonnull align 8 dereferenceable(112) %0, ptr noundef %1) unnamed_addr #1 align 2 {
  %3 = alloca ptr, align 8
  %4 = alloca ptr, align 8
  %5 = alloca %class.LIR_Opr, align 8
  %6 = alloca %class.Register, align 4
  %7 = alloca i32, align 4
  %8 = alloca %class.AddressLiteral, align 8
  %9 = alloca %class.RuntimeAddress, align 8
  %10 = alloca %class.Register, align 4
  store ptr %0, ptr %3, align 8
  store ptr %1, ptr %4, align 8
  %11 = load ptr, ptr %3, align 8
  %12 = load ptr, ptr %4, align 8
  %13 = call noundef ptr @_ZNK13LIR_Assembler4masmEv(ptr noundef nonnull align 8 dereferenceable(96) %12)
  %14 = getelementptr inbounds %class.CodeStub, ptr %11, i32 0, i32 1
  call void @_ZN17AbstractAssembler4bindER5Label(ptr noundef nonnull align 8 dereferenceable(24) %13, ptr noundef nonnull align 8 dereferenceable(33) %14)
  %15 = getelementptr inbounds %class.MonitorExitStub, ptr %11, i32 0, i32 1
  %16 = load i8, ptr %15, align 8
  %17 = trunc i8 %16 to i1
  br i1 %17, label %18, label %25

18:                                               ; preds = %2
  %19 = load ptr, ptr %4, align 8
  %20 = getelementptr inbounds %class.MonitorExitStub, ptr %11, i32 0, i32 2
  %21 = load i32, ptr %20, align 4
  %22 = getelementptr inbounds %class.MonitorAccessStub, ptr %11, i32 0, i32 2
  call void @llvm.memcpy.p0.p0.i64(ptr align 8 %5, ptr align 8 %22, i64 8, i1 false)
  %23 = getelementptr inbounds %class.LIR_Opr, ptr %5, i32 0, i32 0
  %24 = load i64, ptr %23, align 8
  call void @_ZN13LIR_Assembler15monitor_addressEi7LIR_Opr(ptr noundef nonnull align 8 dereferenceable(96) %19, i32 noundef %21, i64 %24)
  br label %25

25:                                               ; preds = %18, %2
  %26 = load ptr, ptr %4, align 8
  %27 = getelementptr inbounds %class.MonitorAccessStub, ptr %11, i32 0, i32 2
  %28 = call noundef ptr @_ZN7LIR_OprptEv(ptr noundef nonnull align 8 dereferenceable(8) %27)
  %29 = call i32 @_ZNK7LIR_Opr11as_registerEv(ptr noundef nonnull align 8 dereferenceable(8) %28)
  %30 = getelementptr inbounds %class.Register, ptr %6, i32 0, i32 0
  store i32 %29, ptr %30, align 4
  %31 = getelementptr inbounds %class.Register, ptr %6, i32 0, i32 0
  %32 = load i32, ptr %31, align 4
  call void @_ZN13LIR_Assembler15store_parameterE8Registeri(ptr noundef nonnull align 8 dereferenceable(96) %26, i32 %32, i32 noundef 0)
  %33 = load ptr, ptr %4, align 8
  %34 = call noundef ptr @_ZNK13LIR_Assembler11compilationEv(ptr noundef nonnull align 8 dereferenceable(96) %33)
  %35 = call noundef zeroext i1 @_ZNK11Compilation12has_fpu_codeEv(ptr noundef nonnull align 8 dereferenceable(704) %34)
  br i1 %35, label %36, label %37

36:                                               ; preds = %25
  store i32 23, ptr %7, align 4
  br label %38

37:                                               ; preds = %25
  store i32 24, ptr %7, align 4
  br label %38

38:                                               ; preds = %37, %36
  %39 = load ptr, ptr %4, align 8
  %40 = call noundef ptr @_ZNK13LIR_Assembler4masmEv(ptr noundef nonnull align 8 dereferenceable(96) %39)
  %41 = load i32, ptr %7, align 4
  %42 = call noundef ptr @_ZN8Runtime19entry_forENS_6StubIDE(i32 noundef %41)
  call void @_ZN14RuntimeAddressC2EPh(ptr noundef nonnull align 8 dereferenceable(56) %9, ptr noundef %42)
  call void @_ZN14AddressLiteralC2EOS_(ptr noundef nonnull align 8 dereferenceable(56) %8, ptr noundef nonnull align 8 dereferenceable(56) %9)
  call void @llvm.memcpy.p0.p0.i64(ptr align 4 %10, ptr align 4 @_ZL3rax, i64 4, i1 false)
  %43 = getelementptr inbounds %class.Register, ptr %10, i32 0, i32 0
  %44 = load i32, ptr %43, align 4
  call void @_ZN14MacroAssembler4callE14AddressLiteral8Register(ptr noundef nonnull align 8 dereferenceable(40) %40, ptr noundef %8, i32 %44)
  %45 = load ptr, ptr %4, align 8
  %46 = call noundef ptr @_ZNK13LIR_Assembler4masmEv(ptr noundef nonnull align 8 dereferenceable(96) %45)
  %47 = getelementptr inbounds %class.CodeStub, ptr %11, i32 0, i32 2
  call void @_ZN9Assembler3jmpER5Labelb(ptr noundef nonnull align 8 dereferenceable(40) %46, ptr noundef nonnull align 8 dereferenceable(33) %47, i1 noundef zeroext true)
  ret void
}