; Function Attrs: mustprogress nounwind uwtable
define hidden void @_ZN15MonitorExitStub9emit_codeEP13LIR_Assembler(ptr noundef nonnull align 8 dereferenceable(112) %0, ptr noundef %1) unnamed_addr #0 align 2 {
  %3 = alloca %class.AddressLiteral, align 8
  %4 = alloca %class.RuntimeAddress, align 8
  %5 = load ptr, ptr %1, align 8
  %6 = getelementptr inbounds i8, ptr %0, i64 8
  tail call void @_ZN17AbstractAssembler4bindER5Label(ptr noundef nonnull align 8 dereferenceable(24) %5, ptr noundef nonnull align 8 dereferenceable(33) %6) #6
  %7 = getelementptr inbounds i8, ptr %0, i64 104
  %8 = load i8, ptr %7, align 8
  %9 = trunc i8 %8 to i1
  br i1 %9, label %10, label %14

10:                                               ; preds = %2
  %11 = getelementptr inbounds i8, ptr %0, i64 108
  %12 = load i32, ptr %11, align 4
  %13 = getelementptr inbounds i8, ptr %0, i64 96
  %.sroa.02.0.copyload = load i64, ptr %13, align 8
  tail call void @_ZN13LIR_Assembler15monitor_addressEi7LIR_Opr(ptr noundef nonnull align 8 dereferenceable(96) %1, i32 noundef %12, i64 %.sroa.02.0.copyload) #6
  br label %14

14:                                               ; preds = %10, %2
  %15 = getelementptr inbounds i8, ptr %0, i64 96
  %16 = tail call i32 @_ZNK7LIR_Opr11as_registerEv(ptr noundef nonnull align 8 dereferenceable(8) %15) #6
  tail call void @_ZN13LIR_Assembler15store_parameterE8Registeri(ptr noundef nonnull align 8 dereferenceable(96) %1, i32 %16, i32 noundef 0) #6
  %17 = getelementptr inbounds i8, ptr %1, i64 16
  %18 = load ptr, ptr %17, align 8
  %19 = getelementptr inbounds i8, ptr %18, i64 97
  %20 = load i8, ptr %19, align 1
  %21 = trunc i8 %20 to i1
  %. = select i1 %21, i32 23, i32 24
  %22 = load ptr, ptr %1, align 8
  %23 = tail call noundef ptr @_ZN8Runtime18blob_forENS_6StubIDE(i32 noundef %.) #6
  %24 = getelementptr inbounds i8, ptr %23, i64 36
  %25 = load i32, ptr %24, align 4
  %26 = sext i32 %25 to i64
  %27 = getelementptr inbounds i8, ptr %23, i64 %26
  call void @_ZN14AddressLiteralC2EPhN9relocInfo9relocTypeE(ptr noundef nonnull align 8 dereferenceable(56) %4, ptr noundef %27, i32 noundef 6) #6
  %28 = load ptr, ptr %4, align 8
  %29 = getelementptr inbounds i8, ptr %28, i64 16
  %30 = load ptr, ptr %29, align 8
  call void %30(ptr noundef nonnull align 8 dereferenceable(20) %4, ptr noundef nonnull align 8 dereferenceable(40) %3) #6
  %31 = getelementptr inbounds i8, ptr %3, i64 40
  %32 = getelementptr inbounds i8, ptr %4, i64 40
  call void @llvm.memcpy.p0.p0.i64(ptr noundef nonnull align 8 dereferenceable(16) %31, ptr noundef nonnull align 8 dereferenceable(16) %32, i64 16, i1 false)
  call void @_ZN14MacroAssembler4callE14AddressLiteral8Register(ptr noundef nonnull align 8 dereferenceable(40) %22, ptr noundef nonnull %3, i32 0) #6
  %33 = load ptr, ptr %1, align 8
  %34 = getelementptr inbounds i8, ptr %0, i64 48
  call void @_ZN9Assembler3jmpER5Labelb(ptr noundef nonnull align 8 dereferenceable(40) %33, ptr noundef nonnull align 8 dereferenceable(33) %34, i1 noundef zeroext true) #6
  ret void
}